
fib:     file format elf64-x86-64


Disassembly of section .init:

0000000000001000 <_init>:
    1000:	48 83 ec 08          	sub    $0x8,%rsp
    1004:	48 8b 05 dd 2f 00 00 	mov    0x2fdd(%rip),%rax        # 3fe8 <__gmon_start__>
    100b:	48 85 c0             	test   %rax,%rax
    100e:	74 02                	je     1012 <_init+0x12>
    1010:	ff d0                	callq  *%rax
    1012:	48 83 c4 08          	add    $0x8,%rsp
    1016:	c3                   	retq   

Disassembly of section .plt:

0000000000001020 <.plt>:
    1020:	ff 35 e2 2f 00 00    	pushq  0x2fe2(%rip)        # 4008 <_GLOBAL_OFFSET_TABLE_+0x8>
    1026:	ff 25 e4 2f 00 00    	jmpq   *0x2fe4(%rip)        # 4010 <_GLOBAL_OFFSET_TABLE_+0x10>
    102c:	0f 1f 40 00          	nopl   0x0(%rax)

0000000000001030 <puts@plt>:
    1030:	ff 25 e2 2f 00 00    	jmpq   *0x2fe2(%rip)        # 4018 <puts@GLIBC_2.2.5>
    1036:	68 00 00 00 00       	pushq  $0x0
    103b:	e9 e0 ff ff ff       	jmpq   1020 <.plt>

0000000000001040 <printf@plt>:
    1040:	ff 25 da 2f 00 00    	jmpq   *0x2fda(%rip)        # 4020 <printf@GLIBC_2.2.5>
    1046:	68 01 00 00 00       	pushq  $0x1
    104b:	e9 d0 ff ff ff       	jmpq   1020 <.plt>

0000000000001050 <strtol@plt>:
    1050:	ff 25 d2 2f 00 00    	jmpq   *0x2fd2(%rip)        # 4028 <strtol@GLIBC_2.2.5>
    1056:	68 02 00 00 00       	pushq  $0x2
    105b:	e9 c0 ff ff ff       	jmpq   1020 <.plt>

Disassembly of section .plt.got:

0000000000001060 <__cxa_finalize@plt>:
    1060:	ff 25 92 2f 00 00    	jmpq   *0x2f92(%rip)        # 3ff8 <__cxa_finalize@GLIBC_2.2.5>
    1066:	66 90                	xchg   %ax,%ax

Disassembly of section .text:

0000000000001070 <main>:
    1070:	53                   	push   %rbx
    1071:	83 ff 02             	cmp    $0x2,%edi
    1074:	75 30                	jne    10a6 <main+0x36>
    1076:	48 8b 7e 08          	mov    0x8(%rsi),%rdi
    107a:	ba 0a 00 00 00       	mov    $0xa,%edx
    107f:	31 f6                	xor    %esi,%esi
    1081:	e8 ca ff ff ff       	callq  1050 <strtol@plt>
    1086:	89 c7                	mov    %eax,%edi
    1088:	48 89 c3             	mov    %rax,%rbx
    108b:	e8 20 01 00 00       	callq  11b0 <fib>
    1090:	89 de                	mov    %ebx,%esi
    1092:	48 8d 3d 9f 0f 00 00 	lea    0xf9f(%rip),%rdi        # 2038 <_IO_stdin_used+0x38>
    1099:	89 c2                	mov    %eax,%edx
    109b:	31 c0                	xor    %eax,%eax
    109d:	e8 9e ff ff ff       	callq  1040 <printf@plt>
    10a2:	31 c0                	xor    %eax,%eax
    10a4:	5b                   	pop    %rbx
    10a5:	c3                   	retq   
    10a6:	48 8d 3d ba 0f 00 00 	lea    0xfba(%rip),%rdi        # 2067 <_IO_stdin_used+0x67>
    10ad:	31 c0                	xor    %eax,%eax
    10af:	e8 8c ff ff ff       	callq  1040 <printf@plt>
    10b4:	eb ec                	jmp    10a2 <main+0x32>
    10b6:	66 2e 0f 1f 84 00 00 	nopw   %cs:0x0(%rax,%rax,1)
    10bd:	00 00 00 

00000000000010c0 <_start>:
    10c0:	31 ed                	xor    %ebp,%ebp
    10c2:	49 89 d1             	mov    %rdx,%r9
    10c5:	5e                   	pop    %rsi
    10c6:	48 89 e2             	mov    %rsp,%rdx
    10c9:	48 83 e4 f0          	and    $0xfffffffffffffff0,%rsp
    10cd:	50                   	push   %rax
    10ce:	54                   	push   %rsp
    10cf:	4c 8d 05 0a 02 00 00 	lea    0x20a(%rip),%r8        # 12e0 <__libc_csu_fini>
    10d6:	48 8d 0d a3 01 00 00 	lea    0x1a3(%rip),%rcx        # 1280 <__libc_csu_init>
    10dd:	48 8d 3d 8c ff ff ff 	lea    -0x74(%rip),%rdi        # 1070 <main>
    10e4:	ff 15 f6 2e 00 00    	callq  *0x2ef6(%rip)        # 3fe0 <__libc_start_main@GLIBC_2.2.5>
    10ea:	f4                   	hlt    
    10eb:	0f 1f 44 00 00       	nopl   0x0(%rax,%rax,1)

00000000000010f0 <deregister_tm_clones>:
    10f0:	48 8d 3d 49 2f 00 00 	lea    0x2f49(%rip),%rdi        # 4040 <__TMC_END__>
    10f7:	48 8d 05 42 2f 00 00 	lea    0x2f42(%rip),%rax        # 4040 <__TMC_END__>
    10fe:	48 39 f8             	cmp    %rdi,%rax
    1101:	74 15                	je     1118 <deregister_tm_clones+0x28>
    1103:	48 8b 05 ce 2e 00 00 	mov    0x2ece(%rip),%rax        # 3fd8 <_ITM_deregisterTMCloneTable>
    110a:	48 85 c0             	test   %rax,%rax
    110d:	74 09                	je     1118 <deregister_tm_clones+0x28>
    110f:	ff e0                	jmpq   *%rax
    1111:	0f 1f 80 00 00 00 00 	nopl   0x0(%rax)
    1118:	c3                   	retq   
    1119:	0f 1f 80 00 00 00 00 	nopl   0x0(%rax)

0000000000001120 <register_tm_clones>:
    1120:	48 8d 3d 19 2f 00 00 	lea    0x2f19(%rip),%rdi        # 4040 <__TMC_END__>
    1127:	48 8d 35 12 2f 00 00 	lea    0x2f12(%rip),%rsi        # 4040 <__TMC_END__>
    112e:	48 29 fe             	sub    %rdi,%rsi
    1131:	48 89 f0             	mov    %rsi,%rax
    1134:	48 c1 ee 3f          	shr    $0x3f,%rsi
    1138:	48 c1 f8 03          	sar    $0x3,%rax
    113c:	48 01 c6             	add    %rax,%rsi
    113f:	48 d1 fe             	sar    %rsi
    1142:	74 14                	je     1158 <register_tm_clones+0x38>
    1144:	48 8b 05 a5 2e 00 00 	mov    0x2ea5(%rip),%rax        # 3ff0 <_ITM_registerTMCloneTable>
    114b:	48 85 c0             	test   %rax,%rax
    114e:	74 08                	je     1158 <register_tm_clones+0x38>
    1150:	ff e0                	jmpq   *%rax
    1152:	66 0f 1f 44 00 00    	nopw   0x0(%rax,%rax,1)
    1158:	c3                   	retq   
    1159:	0f 1f 80 00 00 00 00 	nopl   0x0(%rax)

0000000000001160 <__do_global_dtors_aux>:
    1160:	80 3d d9 2e 00 00 00 	cmpb   $0x0,0x2ed9(%rip)        # 4040 <__TMC_END__>
    1167:	75 2f                	jne    1198 <__do_global_dtors_aux+0x38>
    1169:	55                   	push   %rbp
    116a:	48 83 3d 86 2e 00 00 	cmpq   $0x0,0x2e86(%rip)        # 3ff8 <__cxa_finalize@GLIBC_2.2.5>
    1171:	00 
    1172:	48 89 e5             	mov    %rsp,%rbp
    1175:	74 0c                	je     1183 <__do_global_dtors_aux+0x23>
    1177:	48 8b 3d ba 2e 00 00 	mov    0x2eba(%rip),%rdi        # 4038 <__dso_handle>
    117e:	e8 dd fe ff ff       	callq  1060 <__cxa_finalize@plt>
    1183:	e8 68 ff ff ff       	callq  10f0 <deregister_tm_clones>
    1188:	c6 05 b1 2e 00 00 01 	movb   $0x1,0x2eb1(%rip)        # 4040 <__TMC_END__>
    118f:	5d                   	pop    %rbp
    1190:	c3                   	retq   
    1191:	0f 1f 80 00 00 00 00 	nopl   0x0(%rax)
    1198:	c3                   	retq   
    1199:	0f 1f 80 00 00 00 00 	nopl   0x0(%rax)

00000000000011a0 <frame_dummy>:
    11a0:	e9 7b ff ff ff       	jmpq   1120 <register_tm_clones>
    11a5:	66 2e 0f 1f 84 00 00 	nopw   %cs:0x0(%rax,%rax,1)
    11ac:	00 00 00 
    11af:	90                   	nop

00000000000011b0 <fib>:
    11b0:	83 ff 02             	cmp    $0x2,%edi
    11b3:	76 5b                	jbe    1210 <fib+0x60>
    11b5:	41 54                	push   %r12
    11b7:	45 31 e4             	xor    %r12d,%r12d
    11ba:	55                   	push   %rbp
    11bb:	53                   	push   %rbx
    11bc:	89 fb                	mov    %edi,%ebx
    11be:	eb 0f                	jmp    11cf <fib+0x1f>
    11c0:	89 ef                	mov    %ebp,%edi
    11c2:	e8 e9 ff ff ff       	callq  11b0 <fib>
    11c7:	41 01 c4             	add    %eax,%r12d
    11ca:	83 fb 02             	cmp    $0x2,%ebx
    11cd:	74 31                	je     1200 <fib+0x50>
    11cf:	8d 6b fe             	lea    -0x2(%rbx),%ebp
    11d2:	83 eb 01             	sub    $0x1,%ebx
    11d5:	89 de                	mov    %ebx,%esi
    11d7:	89 ef                	mov    %ebp,%edi
    11d9:	e8 38 00 00 00       	callq  1216 <tadd_ok>
    11de:	83 f8 01             	cmp    $0x1,%eax
    11e1:	74 dd                	je     11c0 <fib+0x10>
    11e3:	48 8d 3d 1e 0e 00 00 	lea    0xe1e(%rip),%rdi        # 2008 <_IO_stdin_used+0x8>
    11ea:	e8 41 fe ff ff       	callq  1030 <puts@plt>
    11ef:	41 8d 44 24 ff       	lea    -0x1(%r12),%eax
    11f4:	5b                   	pop    %rbx
    11f5:	5d                   	pop    %rbp
    11f6:	41 5c                	pop    %r12
    11f8:	c3                   	retq   
    11f9:	0f 1f 80 00 00 00 00 	nopl   0x0(%rax)
    1200:	41 8d 44 24 01       	lea    0x1(%r12),%eax
    1205:	5b                   	pop    %rbx
    1206:	5d                   	pop    %rbp
    1207:	41 5c                	pop    %r12
    1209:	c3                   	retq   
    120a:	66 0f 1f 44 00 00    	nopw   0x0(%rax,%rax,1)
    1210:	b8 01 00 00 00       	mov    $0x1,%eax
    1215:	c3                   	retq   

0000000000001216 <tadd_ok>:
    1216:	55                   	push   %rbp
    1217:	48 89 e5             	mov    %rsp,%rbp
    121a:	89 7d ec             	mov    %edi,-0x14(%rbp)
    121d:	89 75 e8             	mov    %esi,-0x18(%rbp)
    1220:	8b 55 ec             	mov    -0x14(%rbp),%edx
    1223:	8b 45 e8             	mov    -0x18(%rbp),%eax
    1226:	01 d0                	add    %edx,%eax
    1228:	48 98                	cltq   
    122a:	48 89 45 f8          	mov    %rax,-0x8(%rbp)
    122e:	48 81 7d f8 01 00 00 	cmpq   $0xffffffff80000001,-0x8(%rbp)
    1235:	80 
    1236:	7c 11                	jl     1249 <tadd_ok+0x33>
    1238:	48 81 7d f8 fe ff ff 	cmpq   $0x7ffffffe,-0x8(%rbp)
    123f:	7f 
    1240:	7f 07                	jg     1249 <tadd_ok+0x33>
    1242:	b8 01 00 00 00       	mov    $0x1,%eax
    1247:	eb 05                	jmp    124e <tadd_ok+0x38>
    1249:	b8 ff ff ff ff       	mov    $0xffffffff,%eax
    124e:	89 45 f4             	mov    %eax,-0xc(%rbp)
    1251:	8b 45 f4             	mov    -0xc(%rbp),%eax
    1254:	5d                   	pop    %rbp
    1255:	c3                   	retq   

0000000000001256 <tsub_ok>:
    1256:	55                   	push   %rbp
    1257:	48 89 e5             	mov    %rsp,%rbp
    125a:	48 83 ec 08          	sub    $0x8,%rsp
    125e:	89 7d fc             	mov    %edi,-0x4(%rbp)
    1261:	89 75 f8             	mov    %esi,-0x8(%rbp)
    1264:	8b 45 f8             	mov    -0x8(%rbp),%eax
    1267:	f7 d8                	neg    %eax
    1269:	89 c2                	mov    %eax,%edx
    126b:	8b 45 fc             	mov    -0x4(%rbp),%eax
    126e:	89 d6                	mov    %edx,%esi
    1270:	89 c7                	mov    %eax,%edi
    1272:	e8 9f ff ff ff       	callq  1216 <tadd_ok>
    1277:	c9                   	leaveq 
    1278:	c3                   	retq   
    1279:	0f 1f 80 00 00 00 00 	nopl   0x0(%rax)

0000000000001280 <__libc_csu_init>:
    1280:	41 57                	push   %r15
    1282:	4c 8d 3d 5f 2b 00 00 	lea    0x2b5f(%rip),%r15        # 3de8 <__frame_dummy_init_array_entry>
    1289:	41 56                	push   %r14
    128b:	49 89 d6             	mov    %rdx,%r14
    128e:	41 55                	push   %r13
    1290:	49 89 f5             	mov    %rsi,%r13
    1293:	41 54                	push   %r12
    1295:	41 89 fc             	mov    %edi,%r12d
    1298:	55                   	push   %rbp
    1299:	48 8d 2d 50 2b 00 00 	lea    0x2b50(%rip),%rbp        # 3df0 <__do_global_dtors_aux_fini_array_entry>
    12a0:	53                   	push   %rbx
    12a1:	4c 29 fd             	sub    %r15,%rbp
    12a4:	48 83 ec 08          	sub    $0x8,%rsp
    12a8:	e8 53 fd ff ff       	callq  1000 <_init>
    12ad:	48 c1 fd 03          	sar    $0x3,%rbp
    12b1:	74 1b                	je     12ce <__libc_csu_init+0x4e>
    12b3:	31 db                	xor    %ebx,%ebx
    12b5:	0f 1f 00             	nopl   (%rax)
    12b8:	4c 89 f2             	mov    %r14,%rdx
    12bb:	4c 89 ee             	mov    %r13,%rsi
    12be:	44 89 e7             	mov    %r12d,%edi
    12c1:	41 ff 14 df          	callq  *(%r15,%rbx,8)
    12c5:	48 83 c3 01          	add    $0x1,%rbx
    12c9:	48 39 dd             	cmp    %rbx,%rbp
    12cc:	75 ea                	jne    12b8 <__libc_csu_init+0x38>
    12ce:	48 83 c4 08          	add    $0x8,%rsp
    12d2:	5b                   	pop    %rbx
    12d3:	5d                   	pop    %rbp
    12d4:	41 5c                	pop    %r12
    12d6:	41 5d                	pop    %r13
    12d8:	41 5e                	pop    %r14
    12da:	41 5f                	pop    %r15
    12dc:	c3                   	retq   
    12dd:	0f 1f 00             	nopl   (%rax)

00000000000012e0 <__libc_csu_fini>:
    12e0:	c3                   	retq   

Disassembly of section .fini:

00000000000012e4 <_fini>:
    12e4:	48 83 ec 08          	sub    $0x8,%rsp
    12e8:	48 83 c4 08          	add    $0x8,%rsp
    12ec:	c3                   	retq   
